target datalayout = "e-m:e-p270:32:32-p271:32:32-p272:64:64-i64:64-i128:128-f80:128-n8:16:32:64-S128"
target triple = "x86_64-pc-linux-gnu"

%class.UPerfTest = type { ptr, i32, ptr, ptr, ptr, ptr, ptr, i8, ptr, ptr, i32, ptr, i32, i8, ptr, i32, i8, i8, i32, i32, i32, ptr, ptr, ptr }

; Function Attrs: inlinehint mustprogress nounwind uwtable
define internal noundef signext i8 @_ZL9U_FAILURE10UErrorCode(i32 noundef %0) #8 {
  %2 = alloca i32, align 4
  store i32 %0, ptr %2, align 4, !tbaa !48
  %3 = load i32, ptr %2, align 4, !tbaa !48
  %4 = icmp sgt i32 %3, 0
  %5 = zext i1 %4 to i8
  ret i8 %5
}

; Function Attrs: mustprogress uwtable
define noundef ptr @_ZN9UPerfTest9getBufferERiR10UErrorCode(ptr noundef nonnull align 8 dereferenceable(160) %0, ptr noundef nonnull align 4 dereferenceable(4) %1, ptr noundef nonnull align 4 dereferenceable(4) %2) #2 align 2 {
  %4 = alloca ptr, align 8
  %5 = alloca ptr, align 8
  %6 = alloca ptr, align 8
  %7 = alloca ptr, align 8
  store ptr %0, ptr %5, align 8, !tbaa !8
  store ptr %1, ptr %6, align 8, !tbaa !61
  store ptr %2, ptr %7, align 8, !tbaa !15
  %8 = load ptr, ptr %5, align 8
  %9 = load ptr, ptr %7, align 8, !tbaa !15
  %10 = load i32, ptr %9, align 4, !tbaa !48
  %11 = call noundef signext i8 @_ZL9U_FAILURE10UErrorCode(i32 noundef %10)
  %12 = icmp ne i8 %11, 0
  br i1 %12, label %13, label %14

13:                                               ; preds = %3
  store ptr null, ptr %4, align 8
  br label %47

14:                                               ; preds = %3
  %15 = getelementptr inbounds nuw %class.UPerfTest, ptr %8, i32 0, i32 5
  %16 = load ptr, ptr %15, align 8, !tbaa !26
  %17 = call i32 @ucbuf_size(ptr noundef %16)
  %18 = load ptr, ptr %6, align 8, !tbaa !61
  store i32 %17, ptr %18, align 4, !tbaa !10
  %19 = load ptr, ptr %6, align 8, !tbaa !61
  %20 = load i32, ptr %19, align 4, !tbaa !10
  %21 = add nsw i32 %20, 1
  %22 = mul nsw i32 2, %21
  %23 = sext i32 %22 to i64
  %24 = call noalias ptr @uprv_malloc_77(i64 noundef %23) #19
  %25 = getelementptr inbounds nuw %class.UPerfTest, ptr %8, i32 0, i32 14
  store ptr %24, ptr %25, align 8, !tbaa !34
  %26 = getelementptr inbounds nuw %class.UPerfTest, ptr %8, i32 0, i32 14
  %27 = load ptr, ptr %26, align 8, !tbaa !34
  %28 = getelementptr inbounds nuw %class.UPerfTest, ptr %8, i32 0, i32 5
  %29 = load ptr, ptr %28, align 8, !tbaa !26
  %30 = getelementptr inbounds nuw %class.UPerfTest, ptr %8, i32 0, i32 15
  %31 = load ptr, ptr %7, align 8, !tbaa !15
  %32 = call ptr @ucbuf_getBuffer(ptr noundef %29, ptr noundef %30, ptr noundef %31)
  %33 = load ptr, ptr %6, align 8, !tbaa !61
  %34 = load i32, ptr %33, align 4, !tbaa !10
  %35 = call ptr @u_strncpy_77(ptr noundef %27, ptr noundef %32, i32 noundef %34)
  %36 = getelementptr inbounds nuw %class.UPerfTest, ptr %8, i32 0, i32 14
  %37 = load ptr, ptr %36, align 8, !tbaa !34
  %38 = load ptr, ptr %6, align 8, !tbaa !61
  %39 = load i32, ptr %38, align 4, !tbaa !10
  %40 = sext i32 %39 to i64
  %41 = getelementptr inbounds i16, ptr %37, i64 %40
  store i16 0, ptr %41, align 2, !tbaa !63
  %42 = getelementptr inbounds nuw %class.UPerfTest, ptr %8, i32 0, i32 15
  %43 = load i32, ptr %42, align 8, !tbaa !35
  %44 = load ptr, ptr %6, align 8, !tbaa !61
  store i32 %43, ptr %44, align 4, !tbaa !10
  %45 = getelementptr inbounds nuw %class.UPerfTest, ptr %8, i32 0, i32 14
  %46 = load ptr, ptr %45, align 8, !tbaa !34
  store ptr %46, ptr %4, align 8
  br label %47

47:                                               ; preds = %14, %13
  %48 = load ptr, ptr %4, align 8
  ret ptr %48
}