; Function Attrs: mustprogress uwtable
define noundef ptr @_ZN9UPerfTest9getBufferERiR10UErrorCode(ptr noundef nonnull align 8 dereferenceable(160) %0, ptr noundef nonnull align 4 captures(none) dereferenceable(4) %1, ptr noundef nonnull align 4 dereferenceable(4) %2) local_unnamed_addr #3 align 2 {
  %4 = load i32, ptr %2, align 4, !tbaa !34
  %5 = icmp slt i32 %4, 1
  br i1 %5, label %6, label %25

6:                                                ; preds = %3
  %7 = getelementptr inbounds nuw i8, ptr %0, i64 40
  %8 = load ptr, ptr %7, align 8, !tbaa !20
  %9 = tail call i32 @ucbuf_size(ptr noundef %8)
  store i32 %9, ptr %1, align 4, !tbaa !41
  %10 = shl i32 %9, 1
  %11 = add i32 %10, 2
  %12 = sext i32 %11 to i64
  %13 = tail call noalias ptr @uprv_malloc_77(i64 noundef %12) #24
  %14 = getelementptr inbounds nuw i8, ptr %0, i64 104
  store ptr %13, ptr %14, align 8, !tbaa !47
  %15 = load ptr, ptr %7, align 8, !tbaa !20
  %16 = getelementptr inbounds nuw i8, ptr %0, i64 112
  %17 = tail call ptr @ucbuf_getBuffer(ptr noundef %15, ptr noundef nonnull %16, ptr noundef nonnull %2)
  %18 = load i32, ptr %1, align 4, !tbaa !41
  %19 = tail call ptr @u_strncpy_77(ptr noundef %13, ptr noundef %17, i32 noundef %18)
  %20 = load ptr, ptr %14, align 8, !tbaa !47
  %21 = load i32, ptr %1, align 4, !tbaa !41
  %22 = sext i32 %21 to i64
  %23 = getelementptr inbounds i16, ptr %20, i64 %22
  store i16 0, ptr %23, align 2, !tbaa !48
  %24 = load i32, ptr %16, align 8, !tbaa !50
  store i32 %24, ptr %1, align 4, !tbaa !41
  br label %25

25:                                               ; preds = %3, %6
  %.0 = phi ptr [ %20, %6 ], [ null, %3 ]
  ret ptr %.0
}